; Function Attrs: mustprogress uwtable
define hidden void @_ZN3sat4drat7declareENS_7literalE(ptr noundef nonnull align 8 dereferenceable(664) %this, i32 %l.coerce) local_unnamed_addr #3 align 2 personality ptr @__gxx_personality_v0 {
entry:
  %ref.tmp5 = alloca %class.svector.3, align 8
  %ref.tmp8 = alloca %class.svector.3, align 8
  %m_check = getelementptr inbounds i8, ptr %this, i64 643
  %0 = load i8, ptr %m_check, align 1
  %1 = and i8 %0, 1
  %tobool.not = icmp eq i8 %1, 0
  br i1 %tobool.not, label %while.end, label %if.end

if.end:                                           ; preds = %entry
  %shr.i = lshr i32 %l.coerce, 1
  %m_assignment = getelementptr inbounds i8, ptr %this, i64 632
  %m_watches = getelementptr inbounds i8, ptr %this, i64 624
  br label %while.cond

while.cond:                                       ; preds = %_ZN7svectorIjjED2Ev.exit39, %if.end
  %2 = load ptr, ptr %m_assignment, align 8
  %cmp.i = icmp eq ptr %2, null
  br i1 %cmp.i, label %if.then.i, label %_ZNK6vectorI5lboolLb0EjE4sizeEv.exit

_ZNK6vectorI5lboolLb0EjE4sizeEv.exit:             ; preds = %while.cond
  %arrayidx.i = getelementptr inbounds i8, ptr %2, i64 -4
  %3 = load i32, ptr %arrayidx.i, align 4
  %cmp.not = icmp ugt i32 %3, %shr.i
  br i1 %cmp.not, label %while.end, label %lor.lhs.false.i

lor.lhs.false.i:                                  ; preds = %_ZNK6vectorI5lboolLb0EjE4sizeEv.exit
  %arrayidx4.i = getelementptr inbounds i8, ptr %2, i64 -8
  %4 = load i32, ptr %arrayidx4.i, align 4
  %cmp5.i = icmp eq i32 %3, %4
  br i1 %cmp5.i, label %if.then.i, label %_ZN6vectorI5lboolLb0EjE9push_backEOS0_.exit

if.then.i:                                        ; preds = %while.cond, %lor.lhs.false.i
  tail call void @_ZN6vectorI5lboolLb0EjE13expand_vectorEv(ptr noundef nonnull align 8 dereferenceable(8) %m_assignment)
  %.pre.i = load ptr, ptr %m_assignment, align 8
  %arrayidx8.phi.trans.insert.i = getelementptr inbounds i8, ptr %.pre.i, i64 -4
  %.pre1.i = load i32, ptr %arrayidx8.phi.trans.insert.i, align 4
  br label %_ZN6vectorI5lboolLb0EjE9push_backEOS0_.exit

_ZN6vectorI5lboolLb0EjE9push_backEOS0_.exit:      ; preds = %lor.lhs.false.i, %if.then.i
  %5 = phi i32 [ %.pre1.i, %if.then.i ], [ %3, %lor.lhs.false.i ]
  %6 = phi ptr [ %.pre.i, %if.then.i ], [ %2, %lor.lhs.false.i ]
  %idx.ext.i = zext i32 %5 to i64
  %add.ptr.i = getelementptr inbounds i32, ptr %6, i64 %idx.ext.i
  store i32 0, ptr %add.ptr.i, align 4
  %7 = load ptr, ptr %m_assignment, align 8
  %arrayidx10.i = getelementptr inbounds i8, ptr %7, i64 -4
  %8 = load i32, ptr %arrayidx10.i, align 4
  %inc.i = add i32 %8, 1
  store i32 %inc.i, ptr %arrayidx10.i, align 4
  store ptr null, ptr %ref.tmp5, align 8
  %9 = load ptr, ptr %m_watches, align 8
  %cmp.i5 = icmp eq ptr %9, null
  br i1 %cmp.i5, label %if.then.i15, label %lor.lhs.false.i6

lor.lhs.false.i6:                                 ; preds = %_ZN6vectorI5lboolLb0EjE9push_backEOS0_.exit
  %arrayidx.i7 = getelementptr inbounds i8, ptr %9, i64 -4
  %10 = load i32, ptr %arrayidx.i7, align 4
  %arrayidx4.i8 = getelementptr inbounds i8, ptr %9, i64 -8
  %11 = load i32, ptr %arrayidx4.i8, align 4
  %cmp5.i9 = icmp eq i32 %10, %11
  br i1 %cmp5.i9, label %if.then.i15, label %_ZN7svectorIjjED2Ev.exit

if.then.i15:                                      ; preds = %lor.lhs.false.i6, %_ZN6vectorI5lboolLb0EjE9push_backEOS0_.exit
  invoke void @_ZN6vectorI7svectorIjjELb1EjE13expand_vectorEv(ptr noundef nonnull align 8 dereferenceable(8) %m_watches)
          to label %.noexc unwind label %lpad

.noexc:                                           ; preds = %if.then.i15
  %.pre.i16 = load ptr, ptr %m_watches, align 8
  %arrayidx8.phi.trans.insert.i17 = getelementptr inbounds i8, ptr %.pre.i16, i64 -4
  %.pre1.i18 = load i32, ptr %arrayidx8.phi.trans.insert.i17, align 4
  br label %_ZN7svectorIjjED2Ev.exit

_ZN7svectorIjjED2Ev.exit:                         ; preds = %.noexc, %lor.lhs.false.i6
  %12 = phi i32 [ %.pre1.i18, %.noexc ], [ %10, %lor.lhs.false.i6 ]
  %13 = phi ptr [ %.pre.i16, %.noexc ], [ %9, %lor.lhs.false.i6 ]
  %idx.ext.i11 = zext i32 %12 to i64
  %add.ptr.i12 = getelementptr inbounds %class.svector.3, ptr %13, i64 %idx.ext.i11
  store ptr null, ptr %add.ptr.i12, align 8
  store ptr null, ptr %ref.tmp5, align 8
  %14 = load ptr, ptr %m_watches, align 8
  %arrayidx10.i13 = getelementptr inbounds i8, ptr %14, i64 -4
  %15 = load i32, ptr %arrayidx10.i13, align 4
  %inc.i14 = add i32 %15, 1
  store i32 %inc.i14, ptr %arrayidx10.i13, align 4
  %.pre = load ptr, ptr %m_watches, align 8
  store ptr null, ptr %ref.tmp8, align 8
  %cmp.i19 = icmp eq ptr %.pre, null
  br i1 %cmp.i19, label %if.then.i29, label %lor.lhs.false.i20

lor.lhs.false.i20:                                ; preds = %_ZN7svectorIjjED2Ev.exit
  %arrayidx.i21 = getelementptr inbounds i8, ptr %.pre, i64 -4
  %16 = load i32, ptr %arrayidx.i21, align 4
  %arrayidx4.i22 = getelementptr inbounds i8, ptr %.pre, i64 -8
  %17 = load i32, ptr %arrayidx4.i22, align 4
  %cmp5.i23 = icmp eq i32 %16, %17
  br i1 %cmp5.i23, label %if.then.i29, label %_ZN7svectorIjjED2Ev.exit39

if.then.i29:                                      ; preds = %lor.lhs.false.i20, %_ZN7svectorIjjED2Ev.exit
  invoke void @_ZN6vectorI7svectorIjjELb1EjE13expand_vectorEv(ptr noundef nonnull align 8 dereferenceable(8) %m_watches)
          to label %.noexc33 unwind label %lpad9

.noexc33:                                         ; preds = %if.then.i29
  %.pre.i30 = load ptr, ptr %m_watches, align 8
  %arrayidx8.phi.trans.insert.i31 = getelementptr inbounds i8, ptr %.pre.i30, i64 -4
  %.pre1.i32 = load i32, ptr %arrayidx8.phi.trans.insert.i31, align 4
  br label %_ZN7svectorIjjED2Ev.exit39

_ZN7svectorIjjED2Ev.exit39:                       ; preds = %lor.lhs.false.i20, %.noexc33
  %18 = phi i32 [ %.pre1.i32, %.noexc33 ], [ %16, %lor.lhs.false.i20 ]
  %19 = phi ptr [ %.pre.i30, %.noexc33 ], [ %.pre, %lor.lhs.false.i20 ]
  %idx.ext.i25 = zext i32 %18 to i64
  %add.ptr.i26 = getelementptr inbounds %class.svector.3, ptr %19, i64 %idx.ext.i25
  %20 = load ptr, ptr %ref.tmp8, align 8
  store ptr %20, ptr %add.ptr.i26, align 8
  store ptr null, ptr %ref.tmp8, align 8
  %21 = load ptr, ptr %m_watches, align 8
  %arrayidx10.i27 = getelementptr inbounds i8, ptr %21, i64 -4
  %22 = load i32, ptr %arrayidx10.i27, align 4
  %inc.i28 = add i32 %22, 1
  store i32 %inc.i28, ptr %arrayidx10.i27, align 4
  br label %while.cond, !llvm.loop !14

lpad:                                             ; preds = %if.then.i15
  %23 = landingpad { ptr, i32 }
          cleanup
  br label %eh.resume

lpad9:                                            ; preds = %if.then.i29
  %24 = landingpad { ptr, i32 }
          cleanup
  br label %eh.resume

while.end:                                        ; preds = %_ZNK6vectorI5lboolLb0EjE4sizeEv.exit, %entry
  ret void

eh.resume:                                        ; preds = %lpad9, %lpad
  %ref.tmp8.sink = phi ptr [ %ref.tmp8, %lpad9 ], [ %ref.tmp5, %lpad ]
  %.pn = phi { ptr, i32 } [ %24, %lpad9 ], [ %23, %lpad ]
  call void @_ZN7svectorIjjED2Ev(ptr noundef nonnull align 8 dereferenceable(8) %ref.tmp8.sink) #19
  resume { ptr, i32 } %.pn
}